; Function Attrs: nounwind uwtable
define range(i32 -2147483648, 3) i32 @ff_reshuffle_raw_rgb(ptr noundef readnone captures(none) %0, ptr noundef captures(none) %1, ptr noundef readonly captures(none) %2, i32 noundef %3) local_unnamed_addr #0 {
  %5 = alloca ptr, align 8
  %6 = load ptr, ptr %1, align 8, !tbaa !4
  %7 = getelementptr inbounds nuw i8, ptr %2, i64 56
  %8 = load i32, ptr %7, align 8, !tbaa !9
  %9 = getelementptr inbounds nuw i8, ptr %2, i64 76
  %10 = icmp eq i32 %8, 8
  %11 = load i32, ptr %9, align 4, !tbaa !17
  br i1 %10, label %12, label %..thread_crit_edge

..thread_crit_edge:                               ; preds = %4
  %.phi.trans.insert = getelementptr inbounds nuw i8, ptr %6, i64 32
  %.pre = load i32, ptr %.phi.trans.insert, align 8, !tbaa !18
  br label %20

12:                                               ; preds = %4
  %13 = getelementptr inbounds nuw i8, ptr %2, i64 72
  %14 = load i32, ptr %13, align 8, !tbaa !21
  %15 = mul nsw i32 %11, %14
  %16 = add nsw i32 %15, 1024
  %17 = getelementptr inbounds nuw i8, ptr %6, i64 32
  %18 = load i32, ptr %17, align 8, !tbaa !18
  %19 = icmp eq i32 %18, %16
  br i1 %19, label %20, label %.thread

.thread:                                          ; preds = %12
  br label %20

20:                                               ; preds = %..thread_crit_edge, %12, %.thread
  %21 = phi i32 [ %16, %12 ], [ %.pre, %..thread_crit_edge ], [ %18, %.thread ]
  %22 = phi i32 [ 2, %12 ], [ 1, %..thread_crit_edge ], [ 1, %.thread ]
  %23 = phi i32 [ %15, %12 ], [ %.pre, %..thread_crit_edge ], [ %18, %.thread ]
  %24 = sdiv i32 %23, %11
  %25 = tail call i32 @llvm.smin.i32(i32 %3, i32 %24)
  %26 = sub nsw i32 %3, %25
  call void @llvm.lifetime.start.p0(i64 8, ptr nonnull %5) #6
  %27 = mul nsw i32 %11, %3
  %28 = icmp ne i32 %21, %27
  %29 = mul nsw i32 %24, %11
  %.not58 = icmp eq i32 %23, %29
  %or.cond = select i1 %28, i1 %.not58, i1 false
  br i1 %or.cond, label %30, label %64

30:                                               ; preds = %20
  %31 = tail call ptr @av_packet_alloc() #6
  store ptr %31, ptr %5, align 8, !tbaa !4
  %.not59 = icmp eq ptr %31, null
  br i1 %.not59, label %64, label %32

32:                                               ; preds = %30
  %33 = load i32, ptr %9, align 4, !tbaa !17
  %34 = mul nsw i32 %33, %3
  %35 = tail call i32 @av_new_packet(ptr noundef nonnull %31, i32 noundef %34) #6
  %36 = icmp slt i32 %35, 0
  br i1 %36, label %63, label %37

37:                                               ; preds = %32
  %38 = tail call i32 @av_packet_copy_props(ptr noundef nonnull %31, ptr noundef nonnull %6) #6
  %39 = icmp slt i32 %38, 0
  br i1 %39, label %63, label %.preheader

.preheader:                                       ; preds = %37
  %40 = load i32, ptr %9, align 4, !tbaa !17
  %41 = icmp sgt i32 %40, 0
  br i1 %41, label %.lr.ph, label %._crit_edge

.lr.ph:                                           ; preds = %.preheader
  %42 = getelementptr inbounds nuw i8, ptr %31, i64 24
  %43 = getelementptr inbounds nuw i8, ptr %6, i64 24
  %44 = sext i32 %25 to i64
  %45 = sext i32 %3 to i64
  %46 = sext i32 %26 to i64
  %47 = sub nsw i64 0, %46
  %48 = sext i32 %24 to i64
  br label %49

49:                                               ; preds = %.lr.ph, %49
  %indvars.iv = phi i64 [ 0, %.lr.ph ], [ %indvars.iv.next, %49 ]
  %50 = load ptr, ptr %42, align 8, !tbaa !22
  %51 = mul nsw i64 %indvars.iv, %45
  %52 = getelementptr inbounds i8, ptr %50, i64 %51
  %53 = load ptr, ptr %43, align 8, !tbaa !22
  %54 = mul nsw i64 %indvars.iv, %48
  %55 = getelementptr inbounds i8, ptr %53, i64 %54
  tail call void @llvm.memcpy.p0.p0.i64(ptr align 1 %52, ptr align 1 %55, i64 %44, i1 false)
  %56 = load ptr, ptr %42, align 8, !tbaa !22
  %57 = getelementptr inbounds i8, ptr %56, i64 %51
  %58 = getelementptr inbounds i8, ptr %57, i64 %45
  %59 = getelementptr inbounds i8, ptr %58, i64 %47
  tail call void @llvm.memset.p0.i64(ptr align 1 %59, i8 0, i64 %46, i1 false)
  %indvars.iv.next = add nuw nsw i64 %indvars.iv, 1
  %60 = load i32, ptr %9, align 4, !tbaa !17
  %61 = sext i32 %60 to i64
  %62 = icmp slt i64 %indvars.iv.next, %61
  br i1 %62, label %49, label %._crit_edge, !llvm.loop !23

._crit_edge:                                      ; preds = %49, %.preheader
  store ptr %31, ptr %1, align 8, !tbaa !4
  br label %64

63:                                               ; preds = %37, %32
  %.053 = phi i32 [ %35, %32 ], [ %38, %37 ]
  call void @av_packet_free(ptr noundef nonnull %5) #6
  br label %64

64:                                               ; preds = %30, %20, %63, %._crit_edge
  %.052 = phi i32 [ %.053, %63 ], [ %22, %._crit_edge ], [ 0, %20 ], [ -12, %30 ]
  call void @llvm.lifetime.end.p0(i64 8, ptr nonnull %5) #6
  ret i32 %.052
}